target datalayout = "e-m:e-p270:32:32-p271:32:32-p272:64:64-i64:64-i128:128-f80:128-n8:16:32:64-S128"
target triple = "x86_64-pc-linux-gnu"

%"class.std::__cxx11::basic_string" = type { %"struct.std::__cxx11::basic_string<char>::_Alloc_hider", i64, %union.anon }
%"struct.std::__cxx11::basic_string<char>::_Alloc_hider" = type { ptr }
%union.anon = type { i64, [8 x i8] }
%"class.std::vector" = type { %"struct.std::_Vector_base" }
%"struct.std::_Vector_base" = type { %"struct.std::_Vector_base<std::__cxx11::basic_string<char>, std::allocator<std::__cxx11::basic_string<char>>>::_Vector_impl" }
%"struct.std::_Vector_base<std::__cxx11::basic_string<char>, std::allocator<std::__cxx11::basic_string<char>>>::_Vector_impl" = type { %"struct.std::_Vector_base<std::__cxx11::basic_string<char>, std::allocator<std::__cxx11::basic_string<char>>>::_Vector_impl_data" }
%"struct.std::_Vector_base<std::__cxx11::basic_string<char>, std::allocator<std::__cxx11::basic_string<char>>>::_Vector_impl_data" = type { ptr, ptr, ptr }
%"class.std::__cxx11::basic_stringstream" = type { %"class.std::basic_iostream.base", %"class.std::__cxx11::basic_stringbuf", %"class.std::basic_ios" }
%"class.std::basic_iostream.base" = type { %"class.std::basic_istream.base", %"class.std::basic_ostream.base" }
%"class.std::basic_istream.base" = type { ptr, i64 }
%"class.std::basic_ostream.base" = type { ptr }
%"class.std::__cxx11::basic_stringbuf" = type { %"class.std::basic_streambuf", i32, %"class.std::__cxx11::basic_string" }
%"class.std::basic_streambuf" = type { ptr, ptr, ptr, ptr, ptr, ptr, ptr, %"class.std::locale" }
%"class.std::locale" = type { ptr }
%"class.std::basic_ios" = type { %"class.std::ios_base", ptr, i8, i8, ptr, ptr, ptr, ptr }
%"class.std::ios_base" = type { ptr, i64, i64, i32, i32, i32, ptr, %"struct.std::ios_base::_Words", [8 x %"struct.std::ios_base::_Words"], i32, ptr, %"class.std::locale" }
%"struct.std::ios_base::_Words" = type { ptr, i64 }
%"class.casadi::CodeGenerator" = type <{ %"class.std::__cxx11::basic_string", %"class.std::__cxx11::basic_string", %"class.std::__cxx11::basic_string", %"class.std::__cxx11::basic_string", i8, i8, i8, i8, [4 x i8], %"class.std::vector", i8, i8, i8, i8, i8, i8, i8, i8, %"class.std::__cxx11::basic_string", %"class.std::__cxx11::basic_string", %"class.std::__cxx11::basic_string", i8, i8, i8, [5 x i8], %"class.std::__cxx11::basic_string", %"class.std::__cxx11::basic_string", %"class.std::__cxx11::basic_string", %"class.std::__cxx11::basic_stringstream", %"class.std::__cxx11::basic_stringstream", %"class.std::__cxx11::basic_stringstream", %"class.std::__cxx11::basic_stringstream", %"class.std::__cxx11::basic_stringstream", i8, [7 x i8], i64, i64, %"class.std::vector", %"class.std::set", %"class.std::set", %"class.std::set", %"class.std::set", %"class.std::multimap", %"class.std::multimap.13", %"class.std::multimap.13", %"class.std::multimap.13", %"class.std::map", %"class.std::map.25", %"class.std::map.30", %"class.std::map.30", %"class.std::vector.38", %"class.std::map.43", %"class.std::vector.48", %"class.std::vector.53", %"class.std::vector.58", i8, [7 x i8] }>
%"class.std::set" = type { %"class.std::_Rb_tree" }
%"class.std::_Rb_tree" = type { %"struct.std::_Rb_tree<std::__cxx11::basic_string<char>, std::__cxx11::basic_string<char>, std::_Identity<std::__cxx11::basic_string<char>>, std::less<std::__cxx11::basic_string<char>>>::_Rb_tree_impl" }
%"struct.std::_Rb_tree<std::__cxx11::basic_string<char>, std::__cxx11::basic_string<char>, std::_Identity<std::__cxx11::basic_string<char>>, std::less<std::__cxx11::basic_string<char>>>::_Rb_tree_impl" = type { %"struct.std::_Rb_tree_key_compare", %"struct.std::_Rb_tree_header" }
%"struct.std::_Rb_tree_key_compare" = type { %"struct.std::less" }
%"struct.std::less" = type { i8 }
%"struct.std::_Rb_tree_header" = type { %"struct.std::_Rb_tree_node_base", i64 }
%"struct.std::_Rb_tree_node_base" = type { i32, ptr, ptr, ptr }
%"class.std::multimap" = type { %"class.std::_Rb_tree.6" }
%"class.std::_Rb_tree.6" = type { %"struct.std::_Rb_tree<casadi::CodeGenerator::Auxiliary, std::pair<const casadi::CodeGenerator::Auxiliary, std::vector<std::__cxx11::basic_string<char>>>, std::_Select1st<std::pair<const casadi::CodeGenerator::Auxiliary, std::vector<std::__cxx11::basic_string<char>>>>, std::less<casadi::CodeGenerator::Auxiliary>>::_Rb_tree_impl" }
%"struct.std::_Rb_tree<casadi::CodeGenerator::Auxiliary, std::pair<const casadi::CodeGenerator::Auxiliary, std::vector<std::__cxx11::basic_string<char>>>, std::_Select1st<std::pair<const casadi::CodeGenerator::Auxiliary, std::vector<std::__cxx11::basic_string<char>>>>, std::less<casadi::CodeGenerator::Auxiliary>>::_Rb_tree_impl" = type { %"struct.std::_Rb_tree_key_compare.10", %"struct.std::_Rb_tree_header" }
%"struct.std::_Rb_tree_key_compare.10" = type { %"struct.std::less.11" }
%"struct.std::less.11" = type { i8 }
%"class.std::multimap.13" = type { %"class.std::_Rb_tree.14" }
%"class.std::_Rb_tree.14" = type { %"struct.std::_Rb_tree<unsigned long, std::pair<const unsigned long, unsigned long>, std::_Select1st<std::pair<const unsigned long, unsigned long>>, std::less<unsigned long>>::_Rb_tree_impl" }
%"struct.std::_Rb_tree<unsigned long, std::pair<const unsigned long, unsigned long>, std::_Select1st<std::pair<const unsigned long, unsigned long>>, std::less<unsigned long>>::_Rb_tree_impl" = type { %"struct.std::_Rb_tree_key_compare.18", %"struct.std::_Rb_tree_header" }
%"struct.std::_Rb_tree_key_compare.18" = type { %"struct.std::less.19" }
%"struct.std::less.19" = type { i8 }
%"class.std::map" = type { %"class.std::_Rb_tree.21" }
%"class.std::_Rb_tree.21" = type { %"struct.std::_Rb_tree<std::__cxx11::basic_string<char>, std::pair<const std::__cxx11::basic_string<char>, std::pair<std::__cxx11::basic_string<char>, std::__cxx11::basic_string<char>>>, std::_Select1st<std::pair<const std::__cxx11::basic_string<char>, std::pair<std::__cxx11::basic_string<char>, std::__cxx11::basic_string<char>>>>, std::less<std::__cxx11::basic_string<char>>>::_Rb_tree_impl" }
%"struct.std::_Rb_tree<std::__cxx11::basic_string<char>, std::pair<const std::__cxx11::basic_string<char>, std::pair<std::__cxx11::basic_string<char>, std::__cxx11::basic_string<char>>>, std::_Select1st<std::pair<const std::__cxx11::basic_string<char>, std::pair<std::__cxx11::basic_string<char>, std::__cxx11::basic_string<char>>>>, std::less<std::__cxx11::basic_string<char>>>::_Rb_tree_impl" = type { %"struct.std::_Rb_tree_key_compare", %"struct.std::_Rb_tree_header" }
%"class.std::map.25" = type { %"class.std::_Rb_tree.26" }
%"class.std::_Rb_tree.26" = type { %"struct.std::_Rb_tree<std::__cxx11::basic_string<char>, std::pair<const std::__cxx11::basic_string<char>, std::__cxx11::basic_string<char>>, std::_Select1st<std::pair<const std::__cxx11::basic_string<char>, std::__cxx11::basic_string<char>>>, std::less<std::__cxx11::basic_string<char>>>::_Rb_tree_impl" }
%"struct.std::_Rb_tree<std::__cxx11::basic_string<char>, std::pair<const std::__cxx11::basic_string<char>, std::__cxx11::basic_string<char>>, std::_Select1st<std::pair<const std::__cxx11::basic_string<char>, std::__cxx11::basic_string<char>>>, std::less<std::__cxx11::basic_string<char>>>::_Rb_tree_impl" = type { %"struct.std::_Rb_tree_key_compare", %"struct.std::_Rb_tree_header" }
%"class.std::map.30" = type { %"class.std::_Rb_tree.31" }
%"class.std::_Rb_tree.31" = type { %"struct.std::_Rb_tree<const void *, std::pair<const void *const, long long>, std::_Select1st<std::pair<const void *const, long long>>, std::less<const void *>>::_Rb_tree_impl" }
%"struct.std::_Rb_tree<const void *, std::pair<const void *const, long long>, std::_Select1st<std::pair<const void *const, long long>>, std::less<const void *>>::_Rb_tree_impl" = type { %"struct.std::_Rb_tree_key_compare.35", %"struct.std::_Rb_tree_header" }
%"struct.std::_Rb_tree_key_compare.35" = type { %"struct.std::less.36" }
%"struct.std::less.36" = type { i8 }
%"class.std::vector.38" = type { %"struct.std::_Vector_base.39" }
%"struct.std::_Vector_base.39" = type { %"struct.std::_Vector_base<casadi::CodeGenerator::FunctionMeta, std::allocator<casadi::CodeGenerator::FunctionMeta>>::_Vector_impl" }
%"struct.std::_Vector_base<casadi::CodeGenerator::FunctionMeta, std::allocator<casadi::CodeGenerator::FunctionMeta>>::_Vector_impl" = type { %"struct.std::_Vector_base<casadi::CodeGenerator::FunctionMeta, std::allocator<casadi::CodeGenerator::FunctionMeta>>::_Vector_impl_data" }
%"struct.std::_Vector_base<casadi::CodeGenerator::FunctionMeta, std::allocator<casadi::CodeGenerator::FunctionMeta>>::_Vector_impl_data" = type { ptr, ptr, ptr }
%"class.std::map.43" = type { %"class.std::_Rb_tree.44" }
%"class.std::_Rb_tree.44" = type { %"struct.std::_Rb_tree<std::__cxx11::basic_string<char>, std::pair<const std::__cxx11::basic_string<char>, std::map<casadi::FunctionInternal *, long long>>, std::_Select1st<std::pair<const std::__cxx11::basic_string<char>, std::map<casadi::FunctionInternal *, long long>>>, std::less<std::__cxx11::basic_string<char>>>::_Rb_tree_impl" }
%"struct.std::_Rb_tree<std::__cxx11::basic_string<char>, std::pair<const std::__cxx11::basic_string<char>, std::map<casadi::FunctionInternal *, long long>>, std::_Select1st<std::pair<const std::__cxx11::basic_string<char>, std::map<casadi::FunctionInternal *, long long>>>, std::less<std::__cxx11::basic_string<char>>>::_Rb_tree_impl" = type { %"struct.std::_Rb_tree_key_compare", %"struct.std::_Rb_tree_header" }
%"class.std::vector.48" = type { %"struct.std::_Vector_base.49" }
%"struct.std::_Vector_base.49" = type { %"struct.std::_Vector_base<std::vector<double>, std::allocator<std::vector<double>>>::_Vector_impl" }
%"struct.std::_Vector_base<std::vector<double>, std::allocator<std::vector<double>>>::_Vector_impl" = type { %"struct.std::_Vector_base<std::vector<double>, std::allocator<std::vector<double>>>::_Vector_impl_data" }
%"struct.std::_Vector_base<std::vector<double>, std::allocator<std::vector<double>>>::_Vector_impl_data" = type { ptr, ptr, ptr }
%"class.std::vector.53" = type { %"struct.std::_Vector_base.54" }
%"struct.std::_Vector_base.54" = type { %"struct.std::_Vector_base<std::vector<long long>, std::allocator<std::vector<long long>>>::_Vector_impl" }
%"struct.std::_Vector_base<std::vector<long long>, std::allocator<std::vector<long long>>>::_Vector_impl" = type { %"struct.std::_Vector_base<std::vector<long long>, std::allocator<std::vector<long long>>>::_Vector_impl_data" }
%"struct.std::_Vector_base<std::vector<long long>, std::allocator<std::vector<long long>>>::_Vector_impl_data" = type { ptr, ptr, ptr }
%"class.std::vector.58" = type { %"struct.std::_Vector_base.59" }
%"struct.std::_Vector_base.59" = type { %"struct.std::_Vector_base<std::vector<char>, std::allocator<std::vector<char>>>::_Vector_impl" }
%"struct.std::_Vector_base<std::vector<char>, std::allocator<std::vector<char>>>::_Vector_impl" = type { %"struct.std::_Vector_base<std::vector<char>, std::allocator<std::vector<char>>>::_Vector_impl_data" }
%"struct.std::_Vector_base<std::vector<char>, std::allocator<std::vector<char>>>::_Vector_impl_data" = type { ptr, ptr, ptr }

@.str.158 = private unnamed_addr constant [9 x i8] c"#endif\0A\0A\00", align 1
@.str.161 = private unnamed_addr constant [21 x i8] c"#ifndef casadi_real\0A\00", align 1
@.str.162 = private unnamed_addr constant [21 x i8] c"#define casadi_real \00", align 1

; Function Attrs: mustprogress uwtable
define void @_ZNK6casadi13CodeGenerator20generate_casadi_realERSo(ptr noundef nonnull align 8 dereferenceable(3097) %0, ptr noundef nonnull align 8 dereferenceable(8) %1) #4 align 2 {
  %3 = alloca ptr, align 8
  %4 = alloca ptr, align 8
  store ptr %0, ptr %3, align 8
  store ptr %1, ptr %4, align 8
  %5 = load ptr, ptr %3, align 8
  %6 = load ptr, ptr %4, align 8
  %7 = call noundef nonnull align 8 dereferenceable(8) ptr @_ZStlsISt11char_traitsIcEERSt13basic_ostreamIcT_ES5_PKc(ptr noundef nonnull align 8 dereferenceable(8) %6, ptr noundef @.str.161)
  %8 = call noundef nonnull align 8 dereferenceable(8) ptr @_ZStlsISt11char_traitsIcEERSt13basic_ostreamIcT_ES5_PKc(ptr noundef nonnull align 8 dereferenceable(8) %7, ptr noundef @.str.162)
  %9 = getelementptr inbounds %"class.casadi::CodeGenerator", ptr %5, i32 0, i32 2
  %10 = call noundef nonnull align 8 dereferenceable(8) ptr @_ZStlsIcSt11char_traitsIcESaIcEERSt13basic_ostreamIT_T0_ES7_RKNSt7__cxx1112basic_stringIS4_S5_T1_EE(ptr noundef nonnull align 8 dereferenceable(8) %8, ptr noundef nonnull align 8 dereferenceable(32) %9)
  %11 = call noundef nonnull align 8 dereferenceable(8) ptr @_ZNSolsEPFRSoS_E(ptr noundef nonnull align 8 dereferenceable(8) %10, ptr noundef @_ZSt4endlIcSt11char_traitsIcEERSt13basic_ostreamIT_T0_ES6_)
  %12 = call noundef nonnull align 8 dereferenceable(8) ptr @_ZStlsISt11char_traitsIcEERSt13basic_ostreamIcT_ES5_PKc(ptr noundef nonnull align 8 dereferenceable(8) %11, ptr noundef @.str.158)
  ret void
}